target datalayout = "e-m:e-p270:32:32-p271:32:32-p272:64:64-i64:64-i128:128-f80:128-n8:16:32:64-S128"
target triple = "x86_64-pc-linux-gnu"

%struct.LexState = type { i32, i32, i32, %struct.Token, %struct.Token, ptr, ptr, ptr, ptr, ptr, ptr, ptr, ptr }
%struct.Token = type { i32, %union.SemInfo }
%union.SemInfo = type { double }
%struct.Mbuffer = type { ptr, i64, i64 }
%struct.Zio = type { i64, ptr, ptr, ptr, ptr }

@.str.42 = private unnamed_addr constant [25 x i8] c"lexical element too long\00", align 1

; Function Attrs: nounwind uwtable
define internal void @save(ptr noundef %0, i32 noundef %1) #0 {
  %3 = alloca ptr, align 8
  %4 = alloca i32, align 4
  %5 = alloca ptr, align 8
  %6 = alloca i64, align 8
  store ptr %0, ptr %3, align 8, !tbaa !18
  store i32 %1, ptr %4, align 4, !tbaa !11
  call void @llvm.lifetime.start.p0(i64 8, ptr %5) #6
  %7 = load ptr, ptr %3, align 8, !tbaa !18
  %8 = getelementptr inbounds nuw %struct.LexState, ptr %7, i32 0, i32 8
  %9 = load ptr, ptr %8, align 8, !tbaa !61
  store ptr %9, ptr %5, align 8, !tbaa !72
  %10 = load ptr, ptr %5, align 8, !tbaa !72
  %11 = getelementptr inbounds nuw %struct.Mbuffer, ptr %10, i32 0, i32 1
  %12 = load i64, ptr %11, align 8, !tbaa !67
  %13 = add i64 %12, 1
  %14 = load ptr, ptr %5, align 8, !tbaa !72
  %15 = getelementptr inbounds nuw %struct.Mbuffer, ptr %14, i32 0, i32 2
  %16 = load i64, ptr %15, align 8, !tbaa !64
  %17 = icmp ugt i64 %13, %16
  br i1 %17, label %18, label %48

18:                                               ; preds = %2
  call void @llvm.lifetime.start.p0(i64 8, ptr %6) #6
  %19 = load ptr, ptr %5, align 8, !tbaa !72
  %20 = getelementptr inbounds nuw %struct.Mbuffer, ptr %19, i32 0, i32 2
  %21 = load i64, ptr %20, align 8, !tbaa !64
  %22 = icmp uge i64 %21, 4611686018427387903
  br i1 %22, label %23, label %25

23:                                               ; preds = %18
  %24 = load ptr, ptr %3, align 8, !tbaa !18
  call void @lexerror(ptr noundef %24, ptr noundef @.str.42, i32 noundef 0) #7
  unreachable

25:                                               ; preds = %18
  %26 = load ptr, ptr %5, align 8, !tbaa !72
  %27 = getelementptr inbounds nuw %struct.Mbuffer, ptr %26, i32 0, i32 2
  %28 = load i64, ptr %27, align 8, !tbaa !64
  %29 = mul i64 %28, 2
  store i64 %29, ptr %6, align 8, !tbaa !32
  %30 = load ptr, ptr %3, align 8, !tbaa !18
  %31 = getelementptr inbounds nuw %struct.LexState, ptr %30, i32 0, i32 6
  %32 = load ptr, ptr %31, align 8, !tbaa !21
  %33 = load ptr, ptr %5, align 8, !tbaa !72
  %34 = getelementptr inbounds nuw %struct.Mbuffer, ptr %33, i32 0, i32 0
  %35 = load ptr, ptr %34, align 8, !tbaa !62
  %36 = load ptr, ptr %5, align 8, !tbaa !72
  %37 = getelementptr inbounds nuw %struct.Mbuffer, ptr %36, i32 0, i32 2
  %38 = load i64, ptr %37, align 8, !tbaa !64
  %39 = mul i64 %38, 1
  %40 = load i64, ptr %6, align 8, !tbaa !32
  %41 = mul i64 %40, 1
  %42 = call ptr @luaM_saferealloc_(ptr noundef %32, ptr noundef %35, i64 noundef %39, i64 noundef %41)
  %43 = load ptr, ptr %5, align 8, !tbaa !72
  %44 = getelementptr inbounds nuw %struct.Mbuffer, ptr %43, i32 0, i32 0
  store ptr %42, ptr %44, align 8, !tbaa !62
  %45 = load i64, ptr %6, align 8, !tbaa !32
  %46 = load ptr, ptr %5, align 8, !tbaa !72
  %47 = getelementptr inbounds nuw %struct.Mbuffer, ptr %46, i32 0, i32 2
  store i64 %45, ptr %47, align 8, !tbaa !64
  call void @llvm.lifetime.end.p0(i64 8, ptr %6) #6
  br label %48

48:                                               ; preds = %25, %2
  %49 = load i32, ptr %4, align 4, !tbaa !11
  %50 = trunc i32 %49 to i8
  %51 = load ptr, ptr %5, align 8, !tbaa !72
  %52 = getelementptr inbounds nuw %struct.Mbuffer, ptr %51, i32 0, i32 0
  %53 = load ptr, ptr %52, align 8, !tbaa !62
  %54 = load ptr, ptr %5, align 8, !tbaa !72
  %55 = getelementptr inbounds nuw %struct.Mbuffer, ptr %54, i32 0, i32 1
  %56 = load i64, ptr %55, align 8, !tbaa !67
  %57 = add i64 %56, 1
  store i64 %57, ptr %55, align 8, !tbaa !67
  %58 = getelementptr inbounds nuw i8, ptr %53, i64 %56
  store i8 %50, ptr %58, align 1, !tbaa !20
  call void @llvm.lifetime.end.p0(i64 8, ptr %5) #6
  ret void
}

; Function Attrs: nounwind uwtable
define internal i32 @check_next2(ptr noundef %0, ptr noundef %1) #0 {
  %3 = alloca i32, align 4
  %4 = alloca ptr, align 8
  %5 = alloca ptr, align 8
  store ptr %0, ptr %4, align 8, !tbaa !18
  store ptr %1, ptr %5, align 8, !tbaa !13
  %6 = load ptr, ptr %4, align 8, !tbaa !18
  %7 = getelementptr inbounds nuw %struct.LexState, ptr %6, i32 0, i32 0
  %8 = load i32, ptr %7, align 8, !tbaa !55
  %9 = load ptr, ptr %5, align 8, !tbaa !13
  %10 = getelementptr inbounds i8, ptr %9, i64 0
  %11 = load i8, ptr %10, align 1, !tbaa !20
  %12 = sext i8 %11 to i32
  %13 = icmp eq i32 %8, %12
  br i1 %13, label %23, label %14

14:                                               ; preds = %2
  %15 = load ptr, ptr %4, align 8, !tbaa !18
  %16 = getelementptr inbounds nuw %struct.LexState, ptr %15, i32 0, i32 0
  %17 = load i32, ptr %16, align 8, !tbaa !55
  %18 = load ptr, ptr %5, align 8, !tbaa !13
  %19 = getelementptr inbounds i8, ptr %18, i64 1
  %20 = load i8, ptr %19, align 1, !tbaa !20
  %21 = sext i8 %20 to i32
  %22 = icmp eq i32 %17, %21
  br i1 %22, label %23, label %53

23:                                               ; preds = %14, %2
  %24 = load ptr, ptr %4, align 8, !tbaa !18
  %25 = load ptr, ptr %4, align 8, !tbaa !18
  %26 = getelementptr inbounds nuw %struct.LexState, ptr %25, i32 0, i32 0
  %27 = load i32, ptr %26, align 8, !tbaa !55
  call void @save(ptr noundef %24, i32 noundef %27)
  %28 = load ptr, ptr %4, align 8, !tbaa !18
  %29 = getelementptr inbounds nuw %struct.LexState, ptr %28, i32 0, i32 7
  %30 = load ptr, ptr %29, align 8, !tbaa !57
  %31 = getelementptr inbounds nuw %struct.Zio, ptr %30, i32 0, i32 0
  %32 = load i64, ptr %31, align 8, !tbaa !68
  %33 = add i64 %32, -1
  store i64 %33, ptr %31, align 8, !tbaa !68
  %34 = icmp ugt i64 %32, 0
  br i1 %34, label %35, label %44

35:                                               ; preds = %23
  %36 = load ptr, ptr %4, align 8, !tbaa !18
  %37 = getelementptr inbounds nuw %struct.LexState, ptr %36, i32 0, i32 7
  %38 = load ptr, ptr %37, align 8, !tbaa !57
  %39 = getelementptr inbounds nuw %struct.Zio, ptr %38, i32 0, i32 1
  %40 = load ptr, ptr %39, align 8, !tbaa !70
  %41 = getelementptr inbounds nuw i8, ptr %40, i32 1
  store ptr %41, ptr %39, align 8, !tbaa !70
  %42 = load i8, ptr %40, align 1, !tbaa !20
  %43 = zext i8 %42 to i32
  br label %49

44:                                               ; preds = %23
  %45 = load ptr, ptr %4, align 8, !tbaa !18
  %46 = getelementptr inbounds nuw %struct.LexState, ptr %45, i32 0, i32 7
  %47 = load ptr, ptr %46, align 8, !tbaa !57
  %48 = call i32 @luaZ_fill(ptr noundef %47)
  br label %49

49:                                               ; preds = %44, %35
  %50 = phi i32 [ %43, %35 ], [ %48, %44 ]
  %51 = load ptr, ptr %4, align 8, !tbaa !18
  %52 = getelementptr inbounds nuw %struct.LexState, ptr %51, i32 0, i32 0
  store i32 %50, ptr %52, align 8, !tbaa !55
  store i32 1, ptr %3, align 4
  br label %54

53:                                               ; preds = %14
  store i32 0, ptr %3, align 4
  br label %54

54:                                               ; preds = %53, %49
  %55 = load i32, ptr %3, align 4
  ret i32 %55
}