; Function Attrs: nounwind uwtable
define internal fastcc range(i32 0, 2) i32 @check_next2(ptr noundef captures(none) %0, ptr noundef readonly captures(none) %1) unnamed_addr #0 {
  %3 = load i32, ptr %0, align 8, !tbaa !51
  %4 = load i8, ptr %1, align 1, !tbaa !13
  %5 = sext i8 %4 to i32
  %6 = icmp eq i32 %3, %5
  br i1 %6, label %12, label %7

7:                                                ; preds = %2
  %8 = getelementptr inbounds nuw i8, ptr %1, i64 1
  %9 = load i8, ptr %8, align 1, !tbaa !13
  %10 = sext i8 %9 to i32
  %11 = icmp eq i32 %3, %10
  br i1 %11, label %12, label %48

12:                                               ; preds = %7, %2
  %13 = getelementptr inbounds nuw i8, ptr %0, i64 72
  %14 = load ptr, ptr %13, align 8, !tbaa !27
  %15 = getelementptr inbounds nuw i8, ptr %14, i64 8
  %16 = load i64, ptr %15, align 8, !tbaa !28
  %17 = add i64 %16, 1
  %18 = getelementptr inbounds nuw i8, ptr %14, i64 16
  %19 = load i64, ptr %18, align 8, !tbaa !31
  %20 = icmp ugt i64 %17, %19
  br i1 %20, label %21, label %._crit_edge.i

._crit_edge.i:                                    ; preds = %12
  %.pre.i = load ptr, ptr %14, align 8, !tbaa !32
  br label %save.exit

21:                                               ; preds = %12
  %22 = icmp ugt i64 %19, 4611686018427387902
  br i1 %22, label %23, label %24

23:                                               ; preds = %21
  tail call fastcc void @lexerror(ptr noundef nonnull readonly %0, ptr noundef nonnull @.str.42, i32 noundef 0) #7
  unreachable

24:                                               ; preds = %21
  %25 = shl nuw nsw i64 %19, 1
  %26 = getelementptr inbounds nuw i8, ptr %0, i64 56
  %27 = load ptr, ptr %26, align 8, !tbaa !14
  %28 = load ptr, ptr %14, align 8, !tbaa !32
  %29 = tail call ptr @luaM_saferealloc_(ptr noundef %27, ptr noundef %28, i64 noundef %19, i64 noundef %25) #6
  store ptr %29, ptr %14, align 8, !tbaa !32
  store i64 %25, ptr %18, align 8, !tbaa !31
  %.pre15.i = load i64, ptr %15, align 8, !tbaa !28
  %.pre16.i = add i64 %.pre15.i, 1
  br label %save.exit

save.exit:                                        ; preds = %._crit_edge.i, %24
  %.pre-phi.i = phi i64 [ %17, %._crit_edge.i ], [ %.pre16.i, %24 ]
  %30 = phi i64 [ %16, %._crit_edge.i ], [ %.pre15.i, %24 ]
  %31 = phi ptr [ %.pre.i, %._crit_edge.i ], [ %29, %24 ]
  %32 = trunc i32 %3 to i8
  store i64 %.pre-phi.i, ptr %15, align 8, !tbaa !28
  %33 = getelementptr inbounds nuw i8, ptr %31, i64 %30
  store i8 %32, ptr %33, align 1, !tbaa !13
  %34 = getelementptr inbounds nuw i8, ptr %0, i64 64
  %35 = load ptr, ptr %34, align 8, !tbaa !53
  %36 = load i64, ptr %35, align 8, !tbaa !59
  %37 = add i64 %36, -1
  store i64 %37, ptr %35, align 8, !tbaa !59
  %.not = icmp eq i64 %36, 0
  br i1 %.not, label %44, label %38

38:                                               ; preds = %save.exit
  %39 = getelementptr inbounds nuw i8, ptr %35, i64 8
  %40 = load ptr, ptr %39, align 8, !tbaa !61
  %41 = getelementptr inbounds nuw i8, ptr %40, i64 1
  store ptr %41, ptr %39, align 8, !tbaa !61
  %42 = load i8, ptr %40, align 1, !tbaa !13
  %43 = zext i8 %42 to i32
  br label %46

44:                                               ; preds = %save.exit
  %45 = tail call i32 @luaZ_fill(ptr noundef nonnull %35) #6
  br label %46

46:                                               ; preds = %44, %38
  %47 = phi i32 [ %43, %38 ], [ %45, %44 ]
  store i32 %47, ptr %0, align 8, !tbaa !51
  br label %48

48:                                               ; preds = %7, %46
  %.0 = phi i32 [ 1, %46 ], [ 0, %7 ]
  ret i32 %.0
}